; Function Attrs: nounwind uwtable
define dso_local void @setCommand(ptr noundef %0) local_unnamed_addr #0 {
  %2 = alloca ptr, align 8
  %3 = alloca i32, align 4
  %4 = alloca i32, align 4
  call void @llvm.lifetime.start.p0(i64 8, ptr nonnull %2) #11
  store ptr null, ptr %2, align 8, !tbaa !29
  call void @llvm.lifetime.start.p0(i64 4, ptr nonnull %3) #11
  store i32 0, ptr %3, align 4, !tbaa !65
  call void @llvm.lifetime.start.p0(i64 4, ptr nonnull %4) #11
  store i32 0, ptr %4, align 4, !tbaa !65
  %5 = call i32 @parseExtendedStringArgumentsOrReply(ptr noundef %0, ptr noundef nonnull %4, ptr noundef nonnull %3, ptr noundef nonnull %2, i32 noundef 1)
  %.not = icmp eq i32 %5, 0
  br i1 %.not, label %6, label %19

6:                                                ; preds = %1
  %7 = getelementptr inbounds nuw i8, ptr %0, i64 96
  %8 = load ptr, ptr %7, align 8, !tbaa !9
  %9 = getelementptr inbounds nuw i8, ptr %8, i64 16
  %10 = load ptr, ptr %9, align 8, !tbaa !29
  %11 = tail call ptr @tryObjectEncoding(ptr noundef %10) #11
  %12 = load ptr, ptr %7, align 8, !tbaa !9
  %13 = getelementptr inbounds nuw i8, ptr %12, i64 16
  store ptr %11, ptr %13, align 8, !tbaa !29
  %14 = load i32, ptr %4, align 4, !tbaa !65
  %15 = getelementptr inbounds nuw i8, ptr %12, i64 8
  %16 = load ptr, ptr %15, align 8, !tbaa !29
  %17 = load ptr, ptr %2, align 8, !tbaa !29
  %18 = load i32, ptr %3, align 4, !tbaa !65
  tail call void @setGenericCommand(ptr noundef %0, i32 noundef %14, ptr noundef %16, ptr noundef %11, ptr noundef %17, i32 noundef %18, ptr noundef null, ptr noundef null)
  br label %19

19:                                               ; preds = %1, %6
  call void @llvm.lifetime.end.p0(i64 4, ptr nonnull %4) #11
  call void @llvm.lifetime.end.p0(i64 4, ptr nonnull %3) #11
  call void @llvm.lifetime.end.p0(i64 8, ptr nonnull %2) #11
  ret void
}